# SymbolsHelper-Confirmed: 5.2.0 amd64
libQt5WebKitWidgets.so.5 libqt5webkitwidgets5 #MINVER#
 _ZN13QWebInspector10closeEventEP11QCloseEvent@Base 5.0.2
 _ZN13QWebInspector11qt_metacallEN11QMetaObject4CallEiPPv@Base 5.0.2
 _ZN13QWebInspector11qt_metacastEPKc@Base 5.0.2
 _ZN13QWebInspector11resizeEventEP12QResizeEvent@Base 5.0.2
 _ZN13QWebInspector16staticMetaObjectE@Base 5.0.2
 _ZN13QWebInspector5eventEP6QEvent@Base 5.0.2
 _ZN13QWebInspector7setPageEP8QWebPage@Base 5.0.2
 _ZN13QWebInspector9hideEventEP10QHideEvent@Base 5.0.2
 _ZN13QWebInspector9showEventEP10QShowEvent@Base 5.0.2
 _ZN13QWebInspectorC1EP7QWidget@Base 5.0.2
 _ZN13QWebInspectorC2EP7QWidget@Base 5.0.2
 _ZN13QWebInspectorD0Ev@Base 5.0.2
 _ZN13QWebInspectorD1Ev@Base 5.0.2
 _ZN13QWebInspectorD2Ev@Base 5.0.2
 _ZN16QGraphicsWebView10itemChangeEN13QGraphicsItem18GraphicsItemChangeERK8QVariant@Base 5.0.2
 _ZN16QGraphicsWebView10sceneEventEP6QEvent@Base 5.0.2
 _ZN16QGraphicsWebView10setContentERK10QByteArrayRK7QStringRK4QUrl@Base 5.0.2
 _ZN16QGraphicsWebView10urlChangedERK4QUrl@Base 5.0.2
 _ZN16QGraphicsWebView10wheelEventEP24QGraphicsSceneWheelEvent@Base 5.0.2
 _ZN16QGraphicsWebView11iconChangedEv@Base 5.0.2
 _ZN16QGraphicsWebView11linkClickedERK4QUrl@Base 5.0.2
 _ZN16QGraphicsWebView11loadStartedEv@Base 5.0.2
 _ZN16QGraphicsWebView11qt_metacallEN11QMetaObject4CallEiPPv@Base 5.0.2
 _ZN16QGraphicsWebView11qt_metacastEPKc@Base 5.0.2
 _ZN16QGraphicsWebView11setGeometryERK6QRectF@Base 5.0.2
 _ZN16QGraphicsWebView12focusInEventEP11QFocusEvent@Base 5.0.2
 _ZN16QGraphicsWebView12loadFinishedEb@Base 5.0.2
 _ZN16QGraphicsWebView12loadProgressEi@Base 5.0.2
 _ZN16QGraphicsWebView12titleChangedERK7QString@Base 5.0.2
 _ZN16QGraphicsWebView13dragMoveEventEP27QGraphicsSceneDragDropEvent@Base 5.0.2
 _ZN16QGraphicsWebView13focusOutEventEP11QFocusEvent@Base 5.0.2
 _ZN16QGraphicsWebView13keyPressEventEP9QKeyEvent@Base 5.0.2
 _ZN16QGraphicsWebView13setRenderHintEN8QPainter10RenderHintEb@Base 5.0.2
 _ZN16QGraphicsWebView13setZoomFactorEd@Base 5.2.0
 _ZN16QGraphicsWebView14dragEnterEventEP27QGraphicsSceneDragDropEvent@Base 5.0.2
 _ZN16QGraphicsWebView14dragLeaveEventEP27QGraphicsSceneDragDropEvent@Base 5.0.2
 _ZN16QGraphicsWebView14hoverMoveEventEP24QGraphicsSceneHoverEvent@Base 5.0.2
 _ZN16QGraphicsWebView14mouseMoveEventEP24QGraphicsSceneMouseEvent@Base 5.0.2
 _ZN16QGraphicsWebView14setRenderHintsE6QFlagsIN8QPainter10RenderHintEE@Base 5.0.2
 _ZN16QGraphicsWebView14updateGeometryEv@Base 5.0.2
 _ZN16QGraphicsWebView15hoverLeaveEventEP24QGraphicsSceneHoverEvent@Base 5.0.2
 _ZN16QGraphicsWebView15keyReleaseEventEP9QKeyEvent@Base 5.0.2
 _ZN16QGraphicsWebView15mousePressEventEP24QGraphicsSceneMouseEvent@Base 5.0.2
 _ZN16QGraphicsWebView16contextMenuEventEP30QGraphicsSceneContextMenuEvent@Base 5.0.2
 _ZN16QGraphicsWebView16inputMethodEventEP17QInputMethodEvent@Base 5.0.2
 _ZN16QGraphicsWebView16staticMetaObjectE@Base 5.0.2
 _ZN16QGraphicsWebView16statusBarMessageERK7QString@Base 5.0.2
 _ZN16QGraphicsWebView17mouseReleaseEventEP24QGraphicsSceneMouseEvent@Base 5.0.2
 _ZN16QGraphicsWebView17triggerPageActionEN8QWebPage9WebActionEb@Base 5.0.2
 _ZN16QGraphicsWebView18focusNextPrevChildEb@Base 5.0.2
 _ZN16QGraphicsWebView20setResizesToContentsEb@Base 5.0.2
 _ZN16QGraphicsWebView21mouseDoubleClickEventEP24QGraphicsSceneMouseEvent@Base 5.0.2
 _ZN16QGraphicsWebView26setTiledBackingStoreFrozenEb@Base 5.0.2
 _ZN16QGraphicsWebView4backEv@Base 5.0.2
 _ZN16QGraphicsWebView4loadERK15QNetworkRequestN21QNetworkAccessManager9OperationERK10QByteArray@Base 5.0.2
 _ZN16QGraphicsWebView4loadERK4QUrl@Base 5.0.2
 _ZN16QGraphicsWebView4stopEv@Base 5.0.2
 _ZN16QGraphicsWebView5eventEP6QEvent@Base 5.0.2
 _ZN16QGraphicsWebView5paintEP8QPainterPK24QStyleOptionGraphicsItemP7QWidget@Base 5.0.2
 _ZN16QGraphicsWebView6reloadEv@Base 5.0.2
 _ZN16QGraphicsWebView6setUrlERK4QUrl@Base 5.0.2
 _ZN16QGraphicsWebView7forwardEv@Base 5.0.2
 _ZN16QGraphicsWebView7setHtmlERK7QStringRK4QUrl@Base 5.0.2
 _ZN16QGraphicsWebView7setPageEP8QWebPage@Base 5.0.2
 _ZN16QGraphicsWebView8findTextERK7QString6QFlagsIN8QWebPage8FindFlagEE@Base 5.0.2
 _ZN16QGraphicsWebView9dropEventEP27QGraphicsSceneDragDropEvent@Base 5.0.2
 _ZN16QGraphicsWebViewC1EP13QGraphicsItem@Base 5.0.2
 _ZN16QGraphicsWebViewC2EP13QGraphicsItem@Base 5.0.2
 _ZN16QGraphicsWebViewD0Ev@Base 5.0.2
 _ZN16QGraphicsWebViewD1Ev@Base 5.0.2
 _ZN16QGraphicsWebViewD2Ev@Base 5.0.2
 _ZN17QWebHitTestResultC1EP24QWebHitTestResultPrivate@Base 5.0.2
 _ZN17QWebHitTestResultC1ERKS_@Base 5.0.2
 _ZN17QWebHitTestResultC1Ev@Base 5.0.2
 _ZN17QWebHitTestResultC2EP24QWebHitTestResultPrivate@Base 5.0.2
 _ZN17QWebHitTestResultC2ERKS_@Base 5.0.2
 _ZN17QWebHitTestResultC2Ev@Base 5.0.2
 _ZN17QWebHitTestResultD1Ev@Base 5.0.2
 _ZN17QWebHitTestResultD2Ev@Base 5.0.2
 _ZN17QWebHitTestResultaSERKS_@Base 5.0.2
 _ZN6WebKit23initializeWebKitWidgetsEv@Base 5.0.2
 _ZN8QWebPage10chooseFileEP9QWebFrameRK7QString@Base 5.0.2
 _ZN8QWebPage10setPaletteERK8QPalette@Base 5.0.2
 _ZN8QWebPage11linkClickedERK4QUrl@Base 5.0.2
 _ZN8QWebPage11linkHoveredERK7QStringS2_S2_@Base 5.0.2
 _ZN8QWebPage11loadStartedEv@Base 5.0.2
 _ZN8QWebPage11qt_metacallEN11QMetaObject4CallEiPPv@Base 5.0.2
 _ZN8QWebPage11qt_metacastEPKc@Base 5.0.2
 _ZN8QWebPage12createPluginERK7QStringRK4QUrlRK11QStringListS8_@Base 5.0.2
 _ZN8QWebPage12createWindowENS_13WebWindowTypeE@Base 5.0.2
 _ZN8QWebPage12frameCreatedEP9QWebFrame@Base 5.0.2
 _ZN8QWebPage12loadFinishedEb@Base 5.0.2
 _ZN8QWebPage12loadProgressEi@Base 5.0.2
 _ZN8QWebPage13triggerActionENS_9WebActionEb@Base 5.0.2
 _ZN8QWebPage14printRequestedEP9QWebFrame@Base 5.0.2
 _ZN8QWebPage15contentsChangedEv@Base 5.0.2
 _ZN8QWebPage15javaScriptAlertEP9QWebFrameRK7QString@Base 5.0.2
 _ZN8QWebPage15scrollRequestedEiiRK5QRect@Base 5.0.2
 _ZN8QWebPage16javaScriptPromptEP9QWebFrameRK7QStringS4_PS2_@Base 5.0.2
 _ZN8QWebPage16repaintRequestedERK5QRect@Base 5.0.2
 _ZN8QWebPage16selectionChangedEv@Base 5.0.2
 _ZN8QWebPage16setPluginFactoryEP17QWebPluginFactory@Base 5.0.2
 _ZN8QWebPage16staticMetaObjectE@Base 5.0.2
 _ZN8QWebPage16statusBarMessageERK7QString@Base 5.0.2
 _ZN8QWebPage17downloadRequestedERK15QNetworkRequest@Base 5.0.2
 _ZN8QWebPage17javaScriptConfirmEP9QWebFrameRK7QString@Base 5.0.2
 _ZN8QWebPage17microFocusChangedEv@Base 5.0.2
 _ZN8QWebPage18ViewportAttributesC1ERKS0_@Base 5.0.2
 _ZN8QWebPage18ViewportAttributesC1Ev@Base 5.0.2
 _ZN8QWebPage18ViewportAttributesC2ERKS0_@Base 5.0.2
 _ZN8QWebPage18ViewportAttributesC2Ev@Base 5.0.2
 _ZN8QWebPage18ViewportAttributesD1Ev@Base 5.0.2
 _ZN8QWebPage18ViewportAttributesD2Ev@Base 5.0.2
 _ZN8QWebPage18ViewportAttributesaSERKS0_@Base 5.0.2
 _ZN8QWebPage18focusNextPrevChildEb@Base 5.0.2
 _ZN8QWebPage18setContentEditableEb@Base 5.0.2
 _ZN8QWebPage18setVisibilityStateENS_15VisibilityStateE@Base 5.2.0
 _ZN8QWebPage18unsupportedContentEP13QNetworkReply@Base 5.0.2
 _ZN8QWebPage20setFeaturePermissionEP9QWebFrameNS_7FeatureENS_16PermissionPolicyE@Base 5.0.2
 _ZN8QWebPage20windowCloseRequestedEv@Base 5.0.2
 _ZN8QWebPage21databaseQuotaExceededEP9QWebFrame7QString@Base 5.0.2
 _ZN8QWebPage23acceptNavigationRequestEP9QWebFrameRK15QNetworkRequestNS_14NavigationTypeE@Base 5.0.2
 _ZN8QWebPage23geometryChangeRequestedERK5QRect@Base 5.0.2
 _ZN8QWebPage23saveFrameStateRequestedEP9QWebFrameP15QWebHistoryItem@Base 5.0.2
 _ZN8QWebPage23setLinkDelegationPolicyENS_20LinkDelegationPolicyE@Base 5.0.2
 _ZN8QWebPage23setNetworkAccessManagerEP21QNetworkAccessManager@Base 5.0.2
 _ZN8QWebPage23swallowContextMenuEventEP17QContextMenuEvent@Base 5.0.2
 _ZN8QWebPage23viewportChangeRequestedEv@Base 5.0.2
 _ZN8QWebPage24javaScriptConsoleMessageERK7QStringiS2_@Base 5.0.2
 _ZN8QWebPage25createStandardContextMenuEv@Base 5.0.2
 _ZN8QWebPage25shouldInterruptJavaScriptEv@Base 5.0.2
 _ZN8QWebPage26featurePermissionRequestedEP9QWebFrameNS_7FeatureE@Base 5.0.2
 _ZN8QWebPage26restoreFrameStateRequestedEP9QWebFrame@Base 5.0.2
 _ZN8QWebPage28setForwardUnsupportedContentEb@Base 5.0.2
 _ZN8QWebPage29applicationCacheQuotaExceededEP18QWebSecurityOriginyy@Base 5.0.2
 _ZN8QWebPage30updatePositionDependentActionsERK6QPoint@Base 5.0.2
 _ZN8QWebPage32featurePermissionRequestCanceledEP9QWebFrameNS_7FeatureE@Base 5.0.2
 _ZN8QWebPage32menuBarVisibilityChangeRequestedEb@Base 5.0.2
 _ZN8QWebPage32toolBarVisibilityChangeRequestedEb@Base 5.0.2
 _ZN8QWebPage34statusBarVisibilityChangeRequestedEb@Base 5.0.2
 _ZN8QWebPage5eventEP6QEvent@Base 5.0.2
 _ZN8QWebPage7setViewEP7QWidget@Base 5.0.2
 _ZN8QWebPage8findTextERK7QString6QFlagsINS_8FindFlagEE@Base 5.0.2
 _ZN8QWebPage9extensionENS_9ExtensionEPKNS_15ExtensionOptionEPNS_15ExtensionReturnE@Base 5.0.2
 _ZN8QWebPageC1EP7QObject@Base 5.0.2
 _ZN8QWebPageC2EP7QObject@Base 5.0.2
 _ZN8QWebPageD0Ev@Base 5.0.2
 _ZN8QWebPageD1Ev@Base 5.0.2
 _ZN8QWebPageD2Ev@Base 5.0.2
 _ZN8QWebView10paintEventEP11QPaintEvent@Base 5.0.2
 _ZN8QWebView10setContentERK10QByteArrayRK7QStringRK4QUrl@Base 5.0.2
 _ZN8QWebView10urlChangedERK4QUrl@Base 5.0.2
 _ZN8QWebView10wheelEventEP11QWheelEvent@Base 5.0.2
 _ZN8QWebView11changeEventEP6QEvent@Base 5.0.2
 _ZN8QWebView11iconChangedEv@Base 5.0.2
 _ZN8QWebView11linkClickedERK4QUrl@Base 5.0.2
 _ZN8QWebView11loadStartedEv@Base 5.0.2
 _ZN8QWebView11qt_metacallEN11QMetaObject4CallEiPPv@Base 5.0.2
 _ZN8QWebView11qt_metacastEPKc@Base 5.0.2
 _ZN8QWebView11resizeEventEP12QResizeEvent@Base 5.0.2
 _ZN8QWebView12createWindowEN8QWebPage13WebWindowTypeE@Base 5.0.2
 _ZN8QWebView12focusInEventEP11QFocusEvent@Base 5.0.2
 _ZN8QWebView12loadFinishedEb@Base 5.0.2
 _ZN8QWebView12loadProgressEi@Base 5.0.2
 _ZN8QWebView12titleChangedERK7QString@Base 5.0.2
 _ZN8QWebView13dragMoveEventEP14QDragMoveEvent@Base 5.0.2
 _ZN8QWebView13focusOutEventEP11QFocusEvent@Base 5.0.2
 _ZN8QWebView13keyPressEventEP9QKeyEvent@Base 5.0.2
 _ZN8QWebView13setRenderHintEN8QPainter10RenderHintEb@Base 5.0.2
 _ZN8QWebView13setZoomFactorEd@Base 5.2.0
 _ZN8QWebView14dragEnterEventEP15QDragEnterEvent@Base 5.0.2
 _ZN8QWebView14dragLeaveEventEP15QDragLeaveEvent@Base 5.0.2
 _ZN8QWebView14mouseMoveEventEP11QMouseEvent@Base 5.0.2
 _ZN8QWebView14setRenderHintsE6QFlagsIN8QPainter10RenderHintEE@Base 5.0.2
 _ZN8QWebView15keyReleaseEventEP9QKeyEvent@Base 5.0.2
 _ZN8QWebView15mousePressEventEP11QMouseEvent@Base 5.0.2
 _ZN8QWebView16contextMenuEventEP17QContextMenuEvent@Base 5.0.2
 _ZN8QWebView16inputMethodEventEP17QInputMethodEvent@Base 5.0.2
 _ZN8QWebView16selectionChangedEv@Base 5.0.2
 _ZN8QWebView16staticMetaObjectE@Base 5.0.2
 _ZN8QWebView16statusBarMessageERK7QString@Base 5.0.2
 _ZN8QWebView17mouseReleaseEventEP11QMouseEvent@Base 5.0.2
 _ZN8QWebView17triggerPageActionEN8QWebPage9WebActionEb@Base 5.0.2
 _ZN8QWebView18focusNextPrevChildEb@Base 5.0.2
 _ZN8QWebView21mouseDoubleClickEventEP11QMouseEvent@Base 5.0.2
 _ZN8QWebView21setTextSizeMultiplierEd@Base 5.2.0
 _ZN8QWebView4backEv@Base 5.0.2
 _ZN8QWebView4loadERK15QNetworkRequestN21QNetworkAccessManager9OperationERK10QByteArray@Base 5.0.2
 _ZN8QWebView4loadERK4QUrl@Base 5.0.2
 _ZN8QWebView4stopEv@Base 5.0.2
 _ZN8QWebView5eventEP6QEvent@Base 5.0.2
 _ZN8QWebView6reloadEv@Base 5.0.2
 _ZN8QWebView6setUrlERK4QUrl@Base 5.0.2
 _ZN8QWebView7forwardEv@Base 5.0.2
 _ZN8QWebView7setHtmlERK7QStringRK4QUrl@Base 5.0.2
 _ZN8QWebView7setPageEP8QWebPage@Base 5.0.2
 _ZN8QWebView8findTextERK7QString6QFlagsIN8QWebPage8FindFlagEE@Base 5.0.2
 _ZN8QWebView9dropEventEP10QDropEvent@Base 5.0.2
 _ZN8QWebViewC1EP7QWidget@Base 5.0.2
 _ZN8QWebViewC2EP7QWidget@Base 5.0.2
 _ZN8QWebViewD0Ev@Base 5.0.2
 _ZN8QWebViewD1Ev@Base 5.0.2
 _ZN8QWebViewD2Ev@Base 5.0.2
 _ZN9QWebFrame10setContentERK10QByteArrayRK7QStringRK4QUrl@Base 5.0.2
 _ZN9QWebFrame10urlChangedERK4QUrl@Base 5.0.2
 _ZN9QWebFrame11iconChangedEv@Base 5.0.2
 _ZN9QWebFrame11loadStartedEv@Base 5.0.2
 _ZN9QWebFrame11pageChangedEv@Base 5.0.2
 _ZN9QWebFrame11qt_metacallEN11QMetaObject4CallEiPPv@Base 5.0.2
 _ZN9QWebFrame11qt_metacastEPKc@Base 5.0.2
 _ZN9QWebFrame12loadFinishedEb@Base 5.0.2
 _ZN9QWebFrame12titleChangedERK7QString@Base 5.0.2
 _ZN9QWebFrame13setZoomFactorEd@Base 5.2.0
 _ZN9QWebFrame14scrollToAnchorERK7QString@Base 5.0.2
 _ZN9QWebFrame15provisionalLoadEv@Base 5.0.2
 _ZN9QWebFrame16staticMetaObjectE@Base 5.0.2
 _ZN9QWebFrame17setScrollBarValueEN2Qt11OrientationEi@Base 5.0.2
 _ZN9QWebFrame17setScrollPositionERK6QPoint@Base 5.0.2
 _ZN9QWebFrame18evaluateJavaScriptERK7QString@Base 5.0.2
 _ZN9QWebFrame18setScrollBarPolicyEN2Qt11OrientationENS0_15ScrollBarPolicyE@Base 5.0.2
 _ZN9QWebFrame19contentsSizeChangedERK5QSize@Base 5.0.2
 _ZN9QWebFrame21setTextSizeMultiplierEd@Base 5.2.0
 _ZN9QWebFrame22initialLayoutCompletedEv@Base 5.0.2
 _ZN9QWebFrame27addToJavaScriptWindowObjectERK7QStringP7QObjectNS_14ValueOwnershipE@Base 5.0.2
 _ZN9QWebFrame29javaScriptWindowObjectClearedEv@Base 5.0.2
 _ZN9QWebFrame4loadERK15QNetworkRequestN21QNetworkAccessManager9OperationERK10QByteArray@Base 5.0.2
 _ZN9QWebFrame4loadERK4QUrl@Base 5.0.2
 _ZN9QWebFrame5eventEP6QEvent@Base 5.0.2
 _ZN9QWebFrame6renderEP8QPainter6QFlagsINS_11RenderLayerEERK7QRegion@Base 5.0.2
 _ZN9QWebFrame6renderEP8QPainterRK7QRegion@Base 5.0.2
 _ZN9QWebFrame6scrollEii@Base 5.0.2
 _ZN9QWebFrame6setUrlERK4QUrl@Base 5.0.2
 _ZN9QWebFrame7setHtmlERK7QStringRK4QUrl@Base 5.0.2
 _ZN9QWebFrame8setFocusEv@Base 5.0.2
 _ZN9QWebFrameC1EP8QWebPage@Base 5.0.2
 _ZN9QWebFrameC1EPS_P13QWebFrameData@Base 5.0.2
 _ZN9QWebFrameC2EP8QWebPage@Base 5.0.2
 _ZN9QWebFrameC2EPS_P13QWebFrameData@Base 5.0.2
 _ZN9QWebFrameD0Ev@Base 5.0.2
 _ZN9QWebFrameD1Ev@Base 5.0.2
 _ZN9QWebFrameD2Ev@Base 5.0.2
 _ZNK13QWebInspector10metaObjectEv@Base 5.0.2
 _ZNK13QWebInspector4pageEv@Base 5.0.2
 _ZNK13QWebInspector8sizeHintEv@Base 5.0.2
 _ZNK16QGraphicsWebView10isModifiedEv@Base 5.0.2
 _ZNK16QGraphicsWebView10metaObjectEv@Base 5.0.2
 _ZNK16QGraphicsWebView10pageActionEN8QWebPage9WebActionE@Base 5.0.2
 _ZNK16QGraphicsWebView10zoomFactorEv@Base 5.0.2
 _ZNK16QGraphicsWebView11renderHintsEv@Base 5.0.2
 _ZNK16QGraphicsWebView16inputMethodQueryEN2Qt16InputMethodQueryE@Base 5.0.2
 _ZNK16QGraphicsWebView17resizesToContentsEv@Base 5.0.2
 _ZNK16QGraphicsWebView25isTiledBackingStoreFrozenEv@Base 5.0.2
 _ZNK16QGraphicsWebView3urlEv@Base 5.0.2
 _ZNK16QGraphicsWebView4iconEv@Base 5.0.2
 _ZNK16QGraphicsWebView4pageEv@Base 5.0.2
 _ZNK16QGraphicsWebView5titleEv@Base 5.0.2
 _ZNK16QGraphicsWebView7historyEv@Base 5.0.2
 _ZNK16QGraphicsWebView8settingsEv@Base 5.0.2
 _ZNK16QGraphicsWebView8sizeHintEN2Qt8SizeHintERK6QSizeF@Base 5.0.2
 _ZNK17QWebHitTestResult11linkElementEv@Base 5.0.2
 _ZNK17QWebHitTestResult12boundingRectEv@Base 5.0.2
 _ZNK17QWebHitTestResult13alternateTextEv@Base 5.0.2
 _ZNK17QWebHitTestResult15linkTargetFrameEv@Base 5.0.2
 _ZNK17QWebHitTestResult17isContentEditableEv@Base 5.0.2
 _ZNK17QWebHitTestResult17isContentSelectedEv@Base 5.0.2
 _ZNK17QWebHitTestResult21enclosingBlockElementEv@Base 5.0.2
 _ZNK17QWebHitTestResult3posEv@Base 5.0.2
 _ZNK17QWebHitTestResult5frameEv@Base 5.0.2
 _ZNK17QWebHitTestResult5titleEv@Base 5.0.2
 _ZNK17QWebHitTestResult6isNullEv@Base 5.0.2
 _ZNK17QWebHitTestResult6pixmapEv@Base 5.0.2
 _ZNK17QWebHitTestResult7elementEv@Base 5.0.2
 _ZNK17QWebHitTestResult7linkUrlEv@Base 5.0.2
 _ZNK17QWebHitTestResult8imageUrlEv@Base 5.0.2
 _ZNK17QWebHitTestResult8linkTextEv@Base 5.0.2
 _ZNK17QWebHitTestResult8mediaUrlEv@Base 5.2.0
 _ZNK17QWebHitTestResult9linkTitleEv@Base 5.0.2
 _ZNK8QWebPage10isModifiedEv@Base 5.0.2
 _ZNK8QWebPage10metaObjectEv@Base 5.0.2
 _ZNK8QWebPage10totalBytesEv@Base 5.0.2
 _ZNK8QWebPage12currentFrameEv@Base 5.0.2
 _ZNK8QWebPage12hasSelectionEv@Base 5.0.2
 _ZNK8QWebPage12selectedHtmlEv@Base 5.0.2
 _ZNK8QWebPage12selectedTextEv@Base 5.0.2
 _ZNK8QWebPage12viewportSizeEv@Base 5.0.2
 _ZNK8QWebPage13bytesReceivedEv@Base 5.0.2
 _ZNK8QWebPage13pluginFactoryEv@Base 5.0.2
 _ZNK8QWebPage15setViewportSizeERK5QSize@Base 5.0.2
 _ZNK8QWebPage15userAgentForUrlERK4QUrl@Base 5.0.2
 _ZNK8QWebPage15visibilityStateEv@Base 5.2.0
 _ZNK8QWebPage16inputMethodQueryEN2Qt16InputMethodQueryE@Base 5.0.2
 _ZNK8QWebPage17isContentEditableEv@Base 5.0.2
 _ZNK8QWebPage17supportsExtensionENS_9ExtensionE@Base 5.0.2
 _ZNK8QWebPage19supportsContentTypeERK7QString@Base 5.0.2
 _ZNK8QWebPage20linkDelegationPolicyEv@Base 5.0.2
 _ZNK8QWebPage20networkAccessManagerEv@Base 5.0.2
 _ZNK8QWebPage21preferredContentsSizeEv@Base 5.0.2
 _ZNK8QWebPage21supportedContentTypesEv@Base 5.0.2
 _ZNK8QWebPage24setPreferredContentsSizeERK5QSize@Base 5.0.2
 _ZNK8QWebPage25forwardUnsupportedContentEv@Base 5.0.2
 _ZNK8QWebPage25viewportAttributesForSizeERK5QSize@Base 5.0.2
 _ZNK8QWebPage27setActualVisibleContentRectERK5QRect@Base 5.0.2
 _ZNK8QWebPage4viewEv@Base 5.0.2
 _ZNK8QWebPage6actionENS_9WebActionE@Base 5.0.2
 _ZNK8QWebPage6handleEv@Base 5.0.2
 _ZNK8QWebPage7frameAtERK6QPoint@Base 5.0.2
 _ZNK8QWebPage7historyEv@Base 5.0.2
 _ZNK8QWebPage7paletteEv@Base 5.0.2
 _ZNK8QWebPage8settingsEv@Base 5.0.2
 _ZNK8QWebPage9mainFrameEv@Base 5.0.2
 _ZNK8QWebPage9undoStackEv@Base 5.0.2
 _ZNK8QWebView10isModifiedEv@Base 5.0.2
 _ZNK8QWebView10metaObjectEv@Base 5.0.2
 _ZNK8QWebView10pageActionEN8QWebPage9WebActionE@Base 5.0.2
 _ZNK8QWebView10zoomFactorEv@Base 5.0.2
 _ZNK8QWebView11renderHintsEv@Base 5.0.2
 _ZNK8QWebView12hasSelectionEv@Base 5.0.2
 _ZNK8QWebView12selectedHtmlEv@Base 5.0.2
 _ZNK8QWebView12selectedTextEv@Base 5.0.2
 _ZNK8QWebView16inputMethodQueryEN2Qt16InputMethodQueryE@Base 5.0.2
 _ZNK8QWebView18textSizeMultiplierEv@Base 5.0.2
 _ZNK8QWebView3urlEv@Base 5.0.2
 _ZNK8QWebView4iconEv@Base 5.0.2
 _ZNK8QWebView4pageEv@Base 5.0.2
 _ZNK8QWebView5printEP8QPrinter@Base 5.0.2
 _ZNK8QWebView5titleEv@Base 5.0.2
 _ZNK8QWebView7historyEv@Base 5.0.2
 _ZNK8QWebView8settingsEv@Base 5.0.2
 _ZNK8QWebView8sizeHintEv@Base 5.0.2
 _ZNK9QWebFrame10metaObjectEv@Base 5.0.2
 _ZNK9QWebFrame10zoomFactorEv@Base 5.0.2
 _ZNK9QWebFrame11childFramesEv@Base 5.0.2
 _ZNK9QWebFrame11parentFrameEv@Base 5.0.2
 _ZNK9QWebFrame11toPlainTextEv@Base 5.0.2
 _ZNK9QWebFrame12contentsSizeEv@Base 5.0.2
 _ZNK9QWebFrame12requestedUrlEv@Base 5.0.2
 _ZNK9QWebFrame14hitTestContentERK6QPoint@Base 5.0.2
 _ZNK9QWebFrame14scrollBarValueEN2Qt11OrientationE@Base 5.0.2
 _ZNK9QWebFrame14scrollPositionEv@Base 5.0.2
 _ZNK9QWebFrame14securityOriginEv@Base 5.0.2
 _ZNK9QWebFrame15documentElementEv@Base 5.0.2
 _ZNK9QWebFrame15findAllElementsERK7QString@Base 5.0.2
 _ZNK9QWebFrame15scrollBarPolicyEN2Qt11OrientationE@Base 5.0.2
 _ZNK9QWebFrame16findFirstElementERK7QString@Base 5.0.2
 _ZNK9QWebFrame16scrollBarMaximumEN2Qt11OrientationE@Base 5.0.2
 _ZNK9QWebFrame16scrollBarMinimumEN2Qt11OrientationE@Base 5.0.2
 _ZNK9QWebFrame17scrollBarGeometryEN2Qt11OrientationE@Base 5.0.2
 _ZNK9QWebFrame18textSizeMultiplierEv@Base 5.0.2
 _ZNK9QWebFrame3posEv@Base 5.0.2
 _ZNK9QWebFrame3urlEv@Base 5.0.2
 _ZNK9QWebFrame4iconEv@Base 5.0.2
 _ZNK9QWebFrame4pageEv@Base 5.0.2
 _ZNK9QWebFrame5printEP8QPrinter@Base 5.0.2
 _ZNK9QWebFrame5titleEv@Base 5.0.2
 _ZNK9QWebFrame6handleEv@Base 5.0.2
 _ZNK9QWebFrame6toHtmlEv@Base 5.0.2
 _ZNK9QWebFrame7baseUrlEv@Base 5.0.2
 _ZNK9QWebFrame8geometryEv@Base 5.0.2
 _ZNK9QWebFrame8hasFocusEv@Base 5.0.2
 _ZNK9QWebFrame8metaDataEv@Base 5.0.2
 _ZNK9QWebFrame9frameNameEv@Base 5.0.2
 _ZTI13QWebInspector@Base 5.0.2
 _ZTI16QGraphicsWebView@Base 5.0.2
 _ZTI8QWebPage@Base 5.0.2
 _ZTI8QWebView@Base 5.0.2
 _ZTI9QWebFrame@Base 5.0.2
 _ZTS13QWebInspector@Base 5.0.2
 _ZTS16QGraphicsWebView@Base 5.0.2
 _ZTS8QWebPage@Base 5.0.2
 _ZTS8QWebView@Base 5.0.2
 _ZTS9QWebFrame@Base 5.0.2
 _ZTV13QWebInspector@Base 5.0.2
 _ZTV16QGraphicsWebView@Base 5.0.2
 _ZTV8QWebPage@Base 5.0.2
 _ZTV8QWebView@Base 5.0.2
 _ZTV9QWebFrame@Base 5.0.2
 (c++)"non-virtual thunk to QGraphicsWebView::contextMenuEvent(QGraphicsSceneContextMenuEvent*)@Base" 5.0.2
 (c++)"non-virtual thunk to QGraphicsWebView::dragEnterEvent(QGraphicsSceneDragDropEvent*)@Base" 5.0.2
 (c++)"non-virtual thunk to QGraphicsWebView::dragLeaveEvent(QGraphicsSceneDragDropEvent*)@Base" 5.0.2
 (c++)"non-virtual thunk to QGraphicsWebView::dragMoveEvent(QGraphicsSceneDragDropEvent*)@Base" 5.0.2
 (c++)"non-virtual thunk to QGraphicsWebView::dropEvent(QGraphicsSceneDragDropEvent*)@Base" 5.0.2
 (c++)"non-virtual thunk to QGraphicsWebView::focusInEvent(QFocusEvent*)@Base" 5.0.2
 (c++)"non-virtual thunk to QGraphicsWebView::focusOutEvent(QFocusEvent*)@Base" 5.0.2
 (c++)"non-virtual thunk to QGraphicsWebView::hoverLeaveEvent(QGraphicsSceneHoverEvent*)@Base" 5.0.2
 (c++)"non-virtual thunk to QGraphicsWebView::hoverMoveEvent(QGraphicsSceneHoverEvent*)@Base" 5.0.2
 (c++)"non-virtual thunk to QGraphicsWebView::inputMethodEvent(QInputMethodEvent*)@Base" 5.0.2
 (c++)"non-virtual thunk to QGraphicsWebView::inputMethodQuery(Qt::InputMethodQuery) const@Base" 5.0.2
 (c++)"non-virtual thunk to QGraphicsWebView::itemChange(QGraphicsItem::GraphicsItemChange, QVariant const&)@Base" 5.0.2
 (c++)"non-virtual thunk to QGraphicsWebView::keyPressEvent(QKeyEvent*)@Base" 5.0.2
 (c++)"non-virtual thunk to QGraphicsWebView::keyReleaseEvent(QKeyEvent*)@Base" 5.0.2
 (c++)"non-virtual thunk to QGraphicsWebView::mouseDoubleClickEvent(QGraphicsSceneMouseEvent*)@Base" 5.0.2
 (c++)"non-virtual thunk to QGraphicsWebView::mouseMoveEvent(QGraphicsSceneMouseEvent*)@Base" 5.0.2
 (c++)"non-virtual thunk to QGraphicsWebView::mousePressEvent(QGraphicsSceneMouseEvent*)@Base" 5.0.2
 (c++)"non-virtual thunk to QGraphicsWebView::mouseReleaseEvent(QGraphicsSceneMouseEvent*)@Base" 5.0.2
 (c++)"non-virtual thunk to QGraphicsWebView::paint(QPainter*, QStyleOptionGraphicsItem const*, QWidget*)@Base" 5.0.2
 (c++)"non-virtual thunk to QGraphicsWebView::sceneEvent(QEvent*)@Base" 5.0.2
 (c++)"non-virtual thunk to QGraphicsWebView::setGeometry(QRectF const&)@Base" 5.0.2
 (c++)"non-virtual thunk to QGraphicsWebView::sizeHint(Qt::SizeHint, QSizeF const&) const@Base" 5.0.2
 (c++)"non-virtual thunk to QGraphicsWebView::updateGeometry()@Base" 5.0.2
 (c++)"non-virtual thunk to QGraphicsWebView::wheelEvent(QGraphicsSceneWheelEvent*)@Base" 5.0.2
 (c++)"non-virtual thunk to QGraphicsWebView::~QGraphicsWebView()@Base" 5.0.2
 (c++)"non-virtual thunk to QWebInspector::~QWebInspector()@Base" 5.0.2
 (c++)"non-virtual thunk to QWebView::~QWebView()@Base" 5.0.2
